target datalayout = "e-m:e-p270:32:32-p271:32:32-p272:64:64-i64:64-i128:128-f80:128-n8:16:32:64-S128"
target triple = "x86_64-pc-linux-gnu"

%"struct.pkpy::Tuple" = type <{ ptr, [3 x ptr], i32, [4 x i8] }>

; Function Attrs: noreturn nounwind uwtable
define linkonce_odr hidden void @__clang_call_terminate(ptr noundef %0) #5 comdat {
  %2 = call ptr @__cxa_begin_catch(ptr %0) #3
  call void @_ZSt9terminatev() #7
  unreachable
}

; Function Attrs: mustprogress nounwind uwtable
define linkonce_odr noundef zeroext i1 @_ZNK4pkpy5Tuple10is_inlinedEv(ptr noundef nonnull align 8 dereferenceable(36) %0) #4 comdat align 2 {
  %2 = alloca ptr, align 8
  store ptr %0, ptr %2, align 8
  %3 = load ptr, ptr %2, align 8
  %4 = getelementptr inbounds %"struct.pkpy::Tuple", ptr %3, i32 0, i32 0
  %5 = load ptr, ptr %4, align 8
  %6 = getelementptr inbounds %"struct.pkpy::Tuple", ptr %3, i32 0, i32 1
  %7 = getelementptr inbounds [3 x ptr], ptr %6, i64 0, i64 0
  %8 = icmp eq ptr %5, %7
  ret i1 %8
}

; Function Attrs: mustprogress nounwind uwtable
define void @_ZN4pkpy5TupleC2EOS0_(ptr noundef nonnull align 8 dereferenceable(36) %0, ptr noundef nonnull align 8 dereferenceable(36) %1) unnamed_addr #4 align 2 personality ptr @__gxx_personality_v0 {
  %3 = alloca ptr, align 8
  %4 = alloca ptr, align 8
  %5 = alloca i32, align 4
  store ptr %0, ptr %3, align 8
  store ptr %1, ptr %4, align 8
  %6 = load ptr, ptr %3, align 8
  %7 = load ptr, ptr %4, align 8
  %8 = getelementptr inbounds %"struct.pkpy::Tuple", ptr %7, i32 0, i32 2
  %9 = load i32, ptr %8, align 8
  %10 = getelementptr inbounds %"struct.pkpy::Tuple", ptr %6, i32 0, i32 2
  store i32 %9, ptr %10, align 8
  %11 = load ptr, ptr %4, align 8
  %12 = invoke noundef zeroext i1 @_ZNK4pkpy5Tuple10is_inlinedEv(ptr noundef nonnull align 8 dereferenceable(36) %11)
          to label %13 unwind label %53

13:                                               ; preds = %2
  br i1 %12, label %14, label %40

14:                                               ; preds = %13
  %15 = getelementptr inbounds %"struct.pkpy::Tuple", ptr %6, i32 0, i32 1
  %16 = getelementptr inbounds [3 x ptr], ptr %15, i64 0, i64 0
  %17 = getelementptr inbounds %"struct.pkpy::Tuple", ptr %6, i32 0, i32 0
  store ptr %16, ptr %17, align 8
  store i32 0, ptr %5, align 4
  br label %18

18:                                               ; preds = %36, %14
  %19 = load i32, ptr %5, align 4
  %20 = getelementptr inbounds %"struct.pkpy::Tuple", ptr %6, i32 0, i32 2
  %21 = load i32, ptr %20, align 8
  %22 = icmp slt i32 %19, %21
  br i1 %22, label %23, label %39

23:                                               ; preds = %18
  %24 = load ptr, ptr %4, align 8
  %25 = getelementptr inbounds %"struct.pkpy::Tuple", ptr %24, i32 0, i32 0
  %26 = load ptr, ptr %25, align 8
  %27 = load i32, ptr %5, align 4
  %28 = sext i32 %27 to i64
  %29 = getelementptr inbounds ptr, ptr %26, i64 %28
  %30 = load ptr, ptr %29, align 8
  %31 = getelementptr inbounds %"struct.pkpy::Tuple", ptr %6, i32 0, i32 0
  %32 = load ptr, ptr %31, align 8
  %33 = load i32, ptr %5, align 4
  %34 = sext i32 %33 to i64
  %35 = getelementptr inbounds ptr, ptr %32, i64 %34
  store ptr %30, ptr %35, align 8
  br label %36

36:                                               ; preds = %23
  %37 = load i32, ptr %5, align 4
  %38 = add nsw i32 %37, 1
  store i32 %38, ptr %5, align 4
  br label %18, !llvm.loop !6

39:                                               ; preds = %18
  br label %52

40:                                               ; preds = %13
  %41 = load ptr, ptr %4, align 8
  %42 = getelementptr inbounds %"struct.pkpy::Tuple", ptr %41, i32 0, i32 0
  %43 = load ptr, ptr %42, align 8
  %44 = getelementptr inbounds %"struct.pkpy::Tuple", ptr %6, i32 0, i32 0
  store ptr %43, ptr %44, align 8
  %45 = load ptr, ptr %4, align 8
  %46 = getelementptr inbounds %"struct.pkpy::Tuple", ptr %45, i32 0, i32 1
  %47 = getelementptr inbounds [3 x ptr], ptr %46, i64 0, i64 0
  %48 = load ptr, ptr %4, align 8
  %49 = getelementptr inbounds %"struct.pkpy::Tuple", ptr %48, i32 0, i32 0
  store ptr %47, ptr %49, align 8
  %50 = load ptr, ptr %4, align 8
  %51 = getelementptr inbounds %"struct.pkpy::Tuple", ptr %50, i32 0, i32 2
  store i32 0, ptr %51, align 8
  br label %52

52:                                               ; preds = %40, %39
  ret void

53:                                               ; preds = %2
  %54 = landingpad { ptr, i32 }
          catch ptr null
  %55 = extractvalue { ptr, i32 } %54, 0
  call void @__clang_call_terminate(ptr %55) #7
  unreachable
}