; Function Attrs: mustprogress nofree norecurse nosync nounwind memory(readwrite, inaccessiblemem: none) uwtable
define void @_ZN4pkpy5TupleC2EOS0_(ptr noundef nonnull align 8 dereferenceable(36) %0, ptr noundef nonnull align 8 dereferenceable(36) %1) unnamed_addr #4 align 2 personality ptr @__gxx_personality_v0 {
  %3 = getelementptr inbounds i8, ptr %1, i64 32
  %4 = load i32, ptr %3, align 8
  %5 = getelementptr inbounds i8, ptr %0, i64 32
  store i32 %4, ptr %5, align 8
  %6 = load ptr, ptr %1, align 8
  %7 = getelementptr inbounds i8, ptr %1, i64 8
  %8 = icmp eq ptr %6, %7
  br i1 %8, label %9, label %20

9:                                                ; preds = %2
  %10 = getelementptr inbounds i8, ptr %0, i64 8
  store ptr %10, ptr %0, align 8
  %11 = icmp sgt i32 %4, 0
  br i1 %11, label %.lr.ph, label %.loopexit

.lr.ph:                                           ; preds = %9, %.lr.ph
  %indvars.iv = phi i64 [ %indvars.iv.next, %.lr.ph ], [ 0, %9 ]
  %12 = load ptr, ptr %1, align 8
  %13 = getelementptr inbounds ptr, ptr %12, i64 %indvars.iv
  %14 = load ptr, ptr %13, align 8
  %15 = load ptr, ptr %0, align 8
  %16 = getelementptr inbounds ptr, ptr %15, i64 %indvars.iv
  store ptr %14, ptr %16, align 8
  %indvars.iv.next = add nuw nsw i64 %indvars.iv, 1
  %17 = load i32, ptr %5, align 8
  %18 = sext i32 %17 to i64
  %19 = icmp slt i64 %indvars.iv.next, %18
  br i1 %19, label %.lr.ph, label %.loopexit, !llvm.loop !6

20:                                               ; preds = %2
  store ptr %6, ptr %0, align 8
  store ptr %7, ptr %1, align 8
  store i32 0, ptr %3, align 8
  br label %.loopexit

.loopexit:                                        ; preds = %.lr.ph, %9, %20
  ret void
}